target datalayout = "e-m:e-p270:32:32-p271:32:32-p272:64:64-i64:64-i128:128-f80:128-n8:16:32:64-S128"
target triple = "x86_64-pc-linux-gnu"

%"class.cv::Size_" = type { i32, i32 }
%"class.testing::internal::ParamGenerator" = type { %"class.testing::internal::linked_ptr" }
%"class.testing::internal::linked_ptr" = type { ptr, %"class.testing::internal::linked_ptr_internal" }
%"class.testing::internal::linked_ptr_internal" = type { ptr }
%"class.testing::internal::CartesianProductHolder2" = type { %"class.testing::internal::ValueArray2", %"class.testing::internal::ValueArray3" }
%"class.testing::internal::ValueArray2" = type { %"class.cv::Size_", %"class.cv::Size_" }
%"class.testing::internal::ValueArray3" = type { i32, i32, i32 }

@_ZN4perfL5sz3MPE = internal global %"class.cv::Size_" zeroinitializer, align 4
@_ZN4perfL5sz5MPE = internal global %"class.cv::Size_" zeroinitializer, align 4

; Function Attrs: mustprogress nounwind uwtable
define linkonce_odr hidden void @_ZN7testing8internal11ValueArray3IiiiEC2ERKS2_(ptr noundef nonnull align 4 dereferenceable(12) %0, ptr noundef nonnull align 4 dereferenceable(12) %1) unnamed_addr #9 comdat align 2 {
  %3 = alloca ptr, align 8
  %4 = alloca ptr, align 8
  store ptr %0, ptr %3, align 8, !tbaa !306
  store ptr %1, ptr %4, align 8, !tbaa !306
  %5 = load ptr, ptr %3, align 8
  %6 = getelementptr inbounds nuw %"class.testing::internal::ValueArray3", ptr %5, i32 0, i32 0
  %7 = load ptr, ptr %4, align 8, !tbaa !306
  %8 = getelementptr inbounds nuw %"class.testing::internal::ValueArray3", ptr %7, i32 0, i32 0
  %9 = load i32, ptr %8, align 4, !tbaa !310
  store i32 %9, ptr %6, align 4, !tbaa !310
  %10 = getelementptr inbounds nuw %"class.testing::internal::ValueArray3", ptr %5, i32 0, i32 1
  %11 = load ptr, ptr %4, align 8, !tbaa !306
  %12 = getelementptr inbounds nuw %"class.testing::internal::ValueArray3", ptr %11, i32 0, i32 1
  %13 = load i32, ptr %12, align 4, !tbaa !312
  store i32 %13, ptr %10, align 4, !tbaa !312
  %14 = getelementptr inbounds nuw %"class.testing::internal::ValueArray3", ptr %5, i32 0, i32 2
  %15 = load ptr, ptr %4, align 8, !tbaa !306
  %16 = getelementptr inbounds nuw %"class.testing::internal::ValueArray3", ptr %15, i32 0, i32 2
  %17 = load i32, ptr %16, align 4, !tbaa !313
  store i32 %17, ptr %14, align 4, !tbaa !313
  ret void
}

; Function Attrs: mustprogress nounwind uwtable
define linkonce_odr hidden void @_ZN7testing8internal11ValueArray2IN2cv5Size_IiEES4_EC2ERKS5_(ptr noundef nonnull align 4 dereferenceable(16) %0, ptr noundef nonnull align 4 dereferenceable(16) %1) unnamed_addr #9 comdat align 2 {
  %3 = alloca ptr, align 8
  %4 = alloca ptr, align 8
  store ptr %0, ptr %3, align 8, !tbaa !304
  store ptr %1, ptr %4, align 8, !tbaa !304
  %5 = load ptr, ptr %3, align 8
  %6 = getelementptr inbounds nuw %"class.testing::internal::ValueArray2", ptr %5, i32 0, i32 0
  %7 = load ptr, ptr %4, align 8, !tbaa !304
  %8 = getelementptr inbounds nuw %"class.testing::internal::ValueArray2", ptr %7, i32 0, i32 0
  call void @llvm.memcpy.p0.p0.i64(ptr align 4 %6, ptr align 4 %8, i64 8, i1 false), !tbaa.struct !73
  %9 = getelementptr inbounds nuw %"class.testing::internal::ValueArray2", ptr %5, i32 0, i32 1
  %10 = load ptr, ptr %4, align 8, !tbaa !304
  %11 = getelementptr inbounds nuw %"class.testing::internal::ValueArray2", ptr %10, i32 0, i32 1
  call void @llvm.memcpy.p0.p0.i64(ptr align 4 %9, ptr align 4 %11, i64 8, i1 false), !tbaa.struct !73
  ret void
}

; Function Attrs: mustprogress uwtable
define linkonce_odr hidden void @_ZN7testing8internal23CartesianProductHolder2INS0_11ValueArray2IN2cv5Size_IiEES5_EENS0_11ValueArray3IiiiEEEC2ERKS6_RKS8_(ptr noundef nonnull align 4 dereferenceable(28) %0, ptr noundef nonnull align 4 dereferenceable(16) %1, ptr noundef nonnull align 4 dereferenceable(12) %2) unnamed_addr #6 comdat align 2 {
  %4 = alloca ptr, align 8
  %5 = alloca ptr, align 8
  %6 = alloca ptr, align 8
  store ptr %0, ptr %4, align 8, !tbaa !308
  store ptr %1, ptr %5, align 8, !tbaa !304
  store ptr %2, ptr %6, align 8, !tbaa !306
  %7 = load ptr, ptr %4, align 8
  %8 = getelementptr inbounds nuw %"class.testing::internal::CartesianProductHolder2", ptr %7, i32 0, i32 0
  %9 = load ptr, ptr %5, align 8, !tbaa !304
  call void @_ZN7testing8internal11ValueArray2IN2cv5Size_IiEES4_EC2ERKS5_(ptr noundef nonnull align 4 dereferenceable(16) %8, ptr noundef nonnull align 4 dereferenceable(16) %9)
  %10 = getelementptr inbounds nuw %"class.testing::internal::CartesianProductHolder2", ptr %7, i32 0, i32 1
  %11 = load ptr, ptr %6, align 8, !tbaa !306
  call void @_ZN7testing8internal11ValueArray3IiiiEC2ERKS2_(ptr noundef nonnull align 4 dereferenceable(12) %10, ptr noundef nonnull align 4 dereferenceable(12) %11)
  ret void
}

; Function Attrs: mustprogress nounwind uwtable
define linkonce_odr hidden void @_ZN7testing8internal11ValueArray3IiiiEC2Eiii(ptr noundef nonnull align 4 dereferenceable(12) %0, i32 noundef %1, i32 noundef %2, i32 noundef %3) unnamed_addr #9 comdat align 2 {
  %5 = alloca ptr, align 8
  %6 = alloca i32, align 4
  %7 = alloca i32, align 4
  %8 = alloca i32, align 4
  store ptr %0, ptr %5, align 8, !tbaa !306
  store i32 %1, ptr %6, align 4, !tbaa !9
  store i32 %2, ptr %7, align 4, !tbaa !9
  store i32 %3, ptr %8, align 4, !tbaa !9
  %9 = load ptr, ptr %5, align 8
  %10 = getelementptr inbounds nuw %"class.testing::internal::ValueArray3", ptr %9, i32 0, i32 0
  %11 = load i32, ptr %6, align 4, !tbaa !9
  store i32 %11, ptr %10, align 4, !tbaa !310
  %12 = getelementptr inbounds nuw %"class.testing::internal::ValueArray3", ptr %9, i32 0, i32 1
  %13 = load i32, ptr %7, align 4, !tbaa !9
  store i32 %13, ptr %12, align 4, !tbaa !312
  %14 = getelementptr inbounds nuw %"class.testing::internal::ValueArray3", ptr %9, i32 0, i32 2
  %15 = load i32, ptr %8, align 4, !tbaa !9
  store i32 %15, ptr %14, align 4, !tbaa !313
  ret void
}

; Function Attrs: mustprogress nounwind uwtable
define linkonce_odr hidden void @_ZN7testing8internal11ValueArray2IN2cv5Size_IiEES4_EC2ES4_S4_(ptr noundef nonnull align 4 dereferenceable(16) %0, i64 %1, i64 %2) unnamed_addr #9 comdat align 2 {
  %4 = alloca %"class.cv::Size_", align 4
  %5 = alloca %"class.cv::Size_", align 4
  %6 = alloca ptr, align 8
  store i64 %1, ptr %4, align 4
  store i64 %2, ptr %5, align 4
  store ptr %0, ptr %6, align 8, !tbaa !304
  %7 = load ptr, ptr %6, align 8
  %8 = getelementptr inbounds nuw %"class.testing::internal::ValueArray2", ptr %7, i32 0, i32 0
  call void @llvm.memcpy.p0.p0.i64(ptr align 4 %8, ptr align 4 %4, i64 8, i1 false), !tbaa.struct !73
  %9 = getelementptr inbounds nuw %"class.testing::internal::ValueArray2", ptr %7, i32 0, i32 1
  call void @llvm.memcpy.p0.p0.i64(ptr align 4 %9, ptr align 4 %5, i64 8, i1 false), !tbaa.struct !73
  ret void
}

; Function Attrs: mustprogress uwtable
define linkonce_odr hidden void @_ZN7testing7CombineINS_8internal11ValueArray2IN2cv5Size_IiEES5_EENS1_11ValueArray3IiiiEEEENS1_23CartesianProductHolder2IT_T0_EERKSA_RKSB_(ptr dead_on_unwind noalias writable sret(%"class.testing::internal::CartesianProductHolder2") align 4 %0, ptr noundef nonnull align 4 dereferenceable(16) %1, ptr noundef nonnull align 4 dereferenceable(12) %2) #6 comdat {
  %4 = alloca ptr, align 8
  %5 = alloca ptr, align 8
  %6 = alloca ptr, align 8
  store ptr %0, ptr %4, align 8
  store ptr %1, ptr %5, align 8, !tbaa !304
  store ptr %2, ptr %6, align 8, !tbaa !306
  %7 = load ptr, ptr %5, align 8, !tbaa !304
  %8 = load ptr, ptr %6, align 8, !tbaa !306
  call void @_ZN7testing8internal23CartesianProductHolder2INS0_11ValueArray2IN2cv5Size_IiEES5_EENS0_11ValueArray3IiiiEEEC2ERKS6_RKS8_(ptr noundef nonnull align 4 dereferenceable(28) %0, ptr noundef nonnull align 4 dereferenceable(16) %7, ptr noundef nonnull align 4 dereferenceable(12) %8)
  ret void
}

; Function Attrs: mustprogress uwtable
define linkonce_odr hidden void @_ZN7testing6ValuesIiiiEENS_8internal11ValueArray3IT_T0_T1_EES3_S4_S5_(ptr dead_on_unwind noalias writable sret(%"class.testing::internal::ValueArray3") align 4 %0, i32 noundef %1, i32 noundef %2, i32 noundef %3) #6 comdat {
  %5 = alloca ptr, align 8
  %6 = alloca i32, align 4
  %7 = alloca i32, align 4
  %8 = alloca i32, align 4
  store ptr %0, ptr %5, align 8
  store i32 %1, ptr %6, align 4, !tbaa !9
  store i32 %2, ptr %7, align 4, !tbaa !9
  store i32 %3, ptr %8, align 4, !tbaa !9
  %9 = load i32, ptr %6, align 4, !tbaa !9
  %10 = load i32, ptr %7, align 4, !tbaa !9
  %11 = load i32, ptr %8, align 4, !tbaa !9
  call void @_ZN7testing8internal11ValueArray3IiiiEC2Eiii(ptr noundef nonnull align 4 dereferenceable(12) %0, i32 noundef %9, i32 noundef %10, i32 noundef %11)
  ret void
}

; Function Attrs: mustprogress uwtable
define linkonce_odr hidden void @_ZN7testing6ValuesIN2cv5Size_IiEES3_EENS_8internal11ValueArray2IT_T0_EES6_S7_(ptr dead_on_unwind noalias writable sret(%"class.testing::internal::ValueArray2") align 4 %0, i64 %1, i64 %2) #6 comdat {
  %4 = alloca ptr, align 8
  %5 = alloca %"class.cv::Size_", align 4
  %6 = alloca %"class.cv::Size_", align 4
  %7 = alloca %"class.cv::Size_", align 4
  %8 = alloca %"class.cv::Size_", align 4
  store ptr %0, ptr %4, align 8
  store i64 %1, ptr %5, align 4
  store i64 %2, ptr %6, align 4
  call void @llvm.memcpy.p0.p0.i64(ptr align 4 %7, ptr align 4 %5, i64 8, i1 false), !tbaa.struct !73
  call void @llvm.memcpy.p0.p0.i64(ptr align 4 %8, ptr align 4 %6, i64 8, i1 false), !tbaa.struct !73
  %9 = load i64, ptr %7, align 4
  %10 = load i64, ptr %8, align 4
  call void @_ZN7testing8internal11ValueArray2IN2cv5Size_IiEES4_EC2ES4_S4_(ptr noundef nonnull align 4 dereferenceable(16) %0, i64 %9, i64 %10)
  ret void
}

; Function Attrs: mustprogress uwtable
define internal void @_ZN11opencv_testL43gtest_Size_Source_calcHist2d_EvalGenerator_Ev(ptr dead_on_unwind noalias writable sret(%"class.testing::internal::ParamGenerator") align 8 %0) #6 {
  %2 = alloca ptr, align 8
  %3 = alloca %"class.testing::internal::CartesianProductHolder2", align 4
  %4 = alloca %"class.testing::internal::ValueArray2", align 4
  %5 = alloca %"class.cv::Size_", align 4
  %6 = alloca %"class.cv::Size_", align 4
  %7 = alloca %"class.testing::internal::ValueArray3", align 4
  store ptr %0, ptr %2, align 8
  call void @llvm.lifetime.start.p0(i64 28, ptr %3) #3
  call void @llvm.lifetime.start.p0(i64 16, ptr %4) #3
  call void @llvm.memcpy.p0.p0.i64(ptr align 4 %5, ptr align 4 @_ZN4perfL5sz3MPE, i64 8, i1 false), !tbaa.struct !73
  call void @llvm.memcpy.p0.p0.i64(ptr align 4 %6, ptr align 4 @_ZN4perfL5sz5MPE, i64 8, i1 false), !tbaa.struct !73
  %8 = load i64, ptr %5, align 4
  %9 = load i64, ptr %6, align 4
  call void @_ZN7testing6ValuesIN2cv5Size_IiEES3_EENS_8internal11ValueArray2IT_T0_EES6_S7_(ptr dead_on_unwind writable sret(%"class.testing::internal::ValueArray2") align 4 %4, i64 %8, i64 %9)
  call void @llvm.lifetime.start.p0(i64 12, ptr %7) #3
  call void @_ZN7testing6ValuesIiiiEENS_8internal11ValueArray3IT_T0_T1_EES3_S4_S5_(ptr dead_on_unwind writable sret(%"class.testing::internal::ValueArray3") align 4 %7, i32 noundef 8, i32 noundef 10, i32 noundef 13)
  call void @_ZN7testing7CombineINS_8internal11ValueArray2IN2cv5Size_IiEES5_EENS1_11ValueArray3IiiiEEEENS1_23CartesianProductHolder2IT_T0_EERKSA_RKSB_(ptr dead_on_unwind writable sret(%"class.testing::internal::CartesianProductHolder2") align 4 %3, ptr noundef nonnull align 4 dereferenceable(16) %4, ptr noundef nonnull align 4 dereferenceable(12) %7)
  call void @_ZNK7testing8internal23CartesianProductHolder2INS0_11ValueArray2IN2cv5Size_IiEES5_EENS0_11ValueArray3IiiiEEEcvNS0_14ParamGeneratorISt5tupleIJT_T0_EEEEIS5_N4perf7MatTypeEEEv(ptr dead_on_unwind writable sret(%"class.testing::internal::ParamGenerator") align 8 %0, ptr noundef nonnull align 4 dereferenceable(28) %3)
  call void @llvm.lifetime.end.p0(i64 12, ptr %7) #3
  call void @llvm.lifetime.end.p0(i64 16, ptr %4) #3
  call void @llvm.lifetime.end.p0(i64 28, ptr %3) #3
  ret void
}